target datalayout = "e-m:e-p270:32:32-p271:32:32-p272:64:64-i64:64-i128:128-f80:128-n8:16:32:64-S128"
target triple = "x86_64-pc-linux-gnu"

%struct.CK_ATTRIBUTE = type { i64, ptr, i64 }
%struct.CK_FUNCTION_LIST = type { %struct.CK_VERSION, ptr, ptr, ptr, ptr, ptr, ptr, ptr, ptr, ptr, ptr, ptr, ptr, ptr, ptr, ptr, ptr, ptr, ptr, ptr, ptr, ptr, ptr, ptr, ptr, ptr, ptr, ptr, ptr, ptr, ptr, ptr, ptr, ptr, ptr, ptr, ptr, ptr, ptr, ptr, ptr, ptr, ptr, ptr, ptr, ptr, ptr, ptr, ptr, ptr, ptr, ptr, ptr, ptr, ptr, ptr, ptr, ptr, ptr, ptr, ptr, ptr, ptr, ptr, ptr, ptr, ptr, ptr, ptr }
%struct.CK_VERSION = type { i8, i8 }
%struct.JNINativeInterface_ = type { ptr, ptr, ptr, ptr, ptr, ptr, ptr, ptr, ptr, ptr, ptr, ptr, ptr, ptr, ptr, ptr, ptr, ptr, ptr, ptr, ptr, ptr, ptr, ptr, ptr, ptr, ptr, ptr, ptr, ptr, ptr, ptr, ptr, ptr, ptr, ptr, ptr, ptr, ptr, ptr, ptr, ptr, ptr, ptr, ptr, ptr, ptr, ptr, ptr, ptr, ptr, ptr, ptr, ptr, ptr, ptr, ptr, ptr, ptr, ptr, ptr, ptr, ptr, ptr, ptr, ptr, ptr, ptr, ptr, ptr, ptr, ptr, ptr, ptr, ptr, ptr, ptr, ptr, ptr, ptr, ptr, ptr, ptr, ptr, ptr, ptr, ptr, ptr, ptr, ptr, ptr, ptr, ptr, ptr, ptr, ptr, ptr, ptr, ptr, ptr, ptr, ptr, ptr, ptr, ptr, ptr, ptr, ptr, ptr, ptr, ptr, ptr, ptr, ptr, ptr, ptr, ptr, ptr, ptr, ptr, ptr, ptr, ptr, ptr, ptr, ptr, ptr, ptr, ptr, ptr, ptr, ptr, ptr, ptr, ptr, ptr, ptr, ptr, ptr, ptr, ptr, ptr, ptr, ptr, ptr, ptr, ptr, ptr, ptr, ptr, ptr, ptr, ptr, ptr, ptr, ptr, ptr, ptr, ptr, ptr, ptr, ptr, ptr, ptr, ptr, ptr, ptr, ptr, ptr, ptr, ptr, ptr, ptr, ptr, ptr, ptr, ptr, ptr, ptr, ptr, ptr, ptr, ptr, ptr, ptr, ptr, ptr, ptr, ptr, ptr, ptr, ptr, ptr, ptr, ptr, ptr, ptr, ptr, ptr, ptr, ptr, ptr, ptr, ptr, ptr, ptr, ptr, ptr, ptr, ptr, ptr, ptr, ptr, ptr, ptr, ptr, ptr, ptr, ptr, ptr, ptr, ptr, ptr, ptr, ptr, ptr, ptr, ptr, ptr, ptr, ptr, ptr, ptr, ptr, ptr }

; Function Attrs: nounwind uwtable
define i64 @Java_sun_security_pkcs11_wrapper_PKCS11_createNativeKey(ptr noundef %0, ptr noundef %1, i64 noundef %2, ptr noundef %3, i64 noundef %4, ptr noundef %5) #0 {
  %7 = alloca ptr, align 8
  %8 = alloca ptr, align 8
  %9 = alloca i64, align 8
  %10 = alloca ptr, align 8
  %11 = alloca i64, align 8
  %12 = alloca ptr, align 8
  %13 = alloca i64, align 8
  %14 = alloca i64, align 8
  %15 = alloca i64, align 8
  %16 = alloca ptr, align 8
  %17 = alloca i64, align 8
  %18 = alloca i64, align 8
  %19 = alloca i64, align 8
  %20 = alloca ptr, align 8
  %21 = alloca ptr, align 8
  %22 = alloca ptr, align 8
  %23 = alloca i64, align 8
  %24 = alloca ptr, align 8
  %25 = alloca i32, align 4
  %26 = alloca ptr, align 8
  %27 = alloca i64, align 8
  %28 = alloca ptr, align 8
  store ptr %0, ptr %7, align 8
  store ptr %1, ptr %8, align 8
  store i64 %2, ptr %9, align 8
  store ptr %3, ptr %10, align 8
  store i64 %4, ptr %11, align 8
  store ptr %5, ptr %12, align 8
  %29 = load i64, ptr %9, align 8
  store i64 %29, ptr %15, align 8
  store ptr null, ptr %16, align 8
  store i64 0, ptr %17, align 8
  store i64 0, ptr %18, align 8
  store i64 0, ptr %19, align 8
  store ptr null, ptr %20, align 8
  store ptr null, ptr %21, align 8
  store ptr null, ptr %22, align 8
  store i64 0, ptr %23, align 8
  store ptr null, ptr %24, align 8
  store i32 0, ptr %25, align 4
  store ptr null, ptr %26, align 8
  store i64 0, ptr %27, align 8
  %30 = load ptr, ptr %7, align 8
  %31 = load ptr, ptr %8, align 8
  %32 = call ptr @getFunctionList(ptr noundef %30, ptr noundef %31)
  store ptr %32, ptr %28, align 8
  %33 = load ptr, ptr %28, align 8
  %34 = icmp eq ptr %33, null
  br i1 %34, label %35, label %36

35:                                               ; preds = %6
  br label %129

36:                                               ; preds = %6
  %37 = load ptr, ptr %7, align 8
  %38 = load ptr, ptr %37, align 8
  %39 = getelementptr inbounds %struct.JNINativeInterface_, ptr %38, i32 0, i32 184
  %40 = load ptr, ptr %39, align 8
  %41 = load ptr, ptr %7, align 8
  %42 = load ptr, ptr %10, align 8
  %43 = call ptr %40(ptr noundef %41, ptr noundef %42, ptr noundef null)
  store ptr %43, ptr %16, align 8
  %44 = load ptr, ptr %16, align 8
  %45 = icmp eq ptr %44, null
  br i1 %45, label %46, label %47

46:                                               ; preds = %36
  br label %129

47:                                               ; preds = %36
  %48 = load ptr, ptr %16, align 8
  call void @llvm.memcpy.p0.p0.i64(ptr align 8 %18, ptr align 1 %48, i64 8, i1 false)
  %49 = load i64, ptr %18, align 8
  %50 = udiv i64 %49, 24
  store i64 %50, ptr %19, align 8
  %51 = load ptr, ptr %16, align 8
  %52 = getelementptr inbounds i8, ptr %51, i64 8
  store ptr %52, ptr %20, align 8
  %53 = load ptr, ptr %20, align 8
  store ptr %53, ptr %21, align 8
  %54 = load ptr, ptr %16, align 8
  %55 = load i64, ptr %18, align 8
  %56 = getelementptr inbounds i8, ptr %54, i64 %55
  %57 = getelementptr inbounds i8, ptr %56, i64 16
  store ptr %57, ptr %22, align 8
  %58 = load ptr, ptr %16, align 8
  %59 = load i64, ptr %18, align 8
  %60 = getelementptr inbounds i8, ptr %58, i64 %59
  %61 = getelementptr inbounds i8, ptr %60, i64 8
  call void @llvm.memcpy.p0.p0.i64(ptr align 8 %23, ptr align 1 %61, i64 8, i1 false)
  %62 = load ptr, ptr %16, align 8
  %63 = getelementptr inbounds i8, ptr %62, i64 16
  %64 = load i64, ptr %18, align 8
  %65 = getelementptr inbounds i8, ptr %63, i64 %64
  %66 = load i64, ptr %23, align 8
  %67 = getelementptr inbounds i8, ptr %65, i64 %66
  store ptr %67, ptr %24, align 8
  %68 = load ptr, ptr %24, align 8
  call void @llvm.memcpy.p0.p0.i64(ptr align 8 %27, ptr align 1 %68, i64 8, i1 false)
  store i32 0, ptr %25, align 4
  br label %69

69:                                               ; preds = %91, %47
  %70 = load i32, ptr %25, align 4
  %71 = zext i32 %70 to i64
  %72 = load i64, ptr %19, align 8
  %73 = icmp ult i64 %71, %72
  br i1 %73, label %74, label %94

74:                                               ; preds = %69
  %75 = load ptr, ptr %21, align 8
  %76 = getelementptr inbounds %struct.CK_ATTRIBUTE, ptr %75, i32 0, i32 2
  %77 = load i64, ptr %76, align 8
  %78 = icmp ugt i64 %77, 0
  br i1 %78, label %79, label %83

79:                                               ; preds = %74
  %80 = load ptr, ptr %22, align 8
  %81 = load ptr, ptr %21, align 8
  %82 = getelementptr inbounds %struct.CK_ATTRIBUTE, ptr %81, i32 0, i32 1
  store ptr %80, ptr %82, align 8
  br label %83

83:                                               ; preds = %79, %74
  %84 = load ptr, ptr %21, align 8
  %85 = getelementptr inbounds %struct.CK_ATTRIBUTE, ptr %84, i32 0, i32 2
  %86 = load i64, ptr %85, align 8
  %87 = load ptr, ptr %22, align 8
  %88 = getelementptr inbounds i8, ptr %87, i64 %86
  store ptr %88, ptr %22, align 8
  %89 = load ptr, ptr %21, align 8
  %90 = getelementptr inbounds i8, ptr %89, i64 24
  store ptr %90, ptr %21, align 8
  br label %91

91:                                               ; preds = %83
  %92 = load i32, ptr %25, align 4
  %93 = add i32 %92, 1
  store i32 %93, ptr %25, align 4
  br label %69, !llvm.loop !9

94:                                               ; preds = %69
  %95 = load i64, ptr %27, align 8
  %96 = icmp eq i64 %95, 0
  br i1 %96, label %97, label %105

97:                                               ; preds = %94
  %98 = load ptr, ptr %28, align 8
  %99 = getelementptr inbounds %struct.CK_FUNCTION_LIST, ptr %98, i32 0, i32 21
  %100 = load ptr, ptr %99, align 8
  %101 = load i64, ptr %15, align 8
  %102 = load ptr, ptr %20, align 8
  %103 = load i64, ptr %19, align 8
  %104 = call i64 %100(i64 noundef %101, ptr noundef %102, i64 noundef %103, ptr noundef %13)
  store i64 %104, ptr %14, align 8
  br label %121

105:                                              ; preds = %94
  %106 = load ptr, ptr %7, align 8
  %107 = load ptr, ptr %12, align 8
  %108 = call ptr @jMechanismToCKMechanismPtr(ptr noundef %106, ptr noundef %107)
  store ptr %108, ptr %26, align 8
  %109 = load ptr, ptr %28, align 8
  %110 = getelementptr inbounds %struct.CK_FUNCTION_LIST, ptr %109, i32 0, i32 62
  %111 = load ptr, ptr %110, align 8
  %112 = load i64, ptr %15, align 8
  %113 = load ptr, ptr %26, align 8
  %114 = load i64, ptr %11, align 8
  %115 = load ptr, ptr %24, align 8
  %116 = getelementptr inbounds i8, ptr %115, i64 8
  %117 = load i64, ptr %27, align 8
  %118 = load ptr, ptr %20, align 8
  %119 = load i64, ptr %19, align 8
  %120 = call i64 %111(i64 noundef %112, ptr noundef %113, i64 noundef %114, ptr noundef %116, i64 noundef %117, ptr noundef %118, i64 noundef %119, ptr noundef %13)
  store i64 %120, ptr %14, align 8
  br label %121

121:                                              ; preds = %105, %97
  %122 = load ptr, ptr %7, align 8
  %123 = load i64, ptr %14, align 8
  %124 = call i64 @ckAssertReturnValueOK(ptr noundef %122, i64 noundef %123)
  %125 = icmp ne i64 %124, 0
  br i1 %125, label %126, label %127

126:                                              ; preds = %121
  br label %129

127:                                              ; preds = %121
  %128 = load i64, ptr %13, align 8
  store i64 %128, ptr %17, align 8
  br label %129

129:                                              ; preds = %127, %126, %46, %35
  %130 = load ptr, ptr %16, align 8
  %131 = icmp ne ptr %130, null
  br i1 %131, label %132, label %140

132:                                              ; preds = %129
  %133 = load ptr, ptr %7, align 8
  %134 = load ptr, ptr %133, align 8
  %135 = getelementptr inbounds %struct.JNINativeInterface_, ptr %134, i32 0, i32 192
  %136 = load ptr, ptr %135, align 8
  %137 = load ptr, ptr %7, align 8
  %138 = load ptr, ptr %10, align 8
  %139 = load ptr, ptr %16, align 8
  call void %136(ptr noundef %137, ptr noundef %138, ptr noundef %139, i32 noundef 2)
  br label %140

140:                                              ; preds = %132, %129
  %141 = load ptr, ptr %26, align 8
  call void @freeCKMechanismPtr(ptr noundef %141)
  %142 = load i64, ptr %17, align 8
  ret i64 %142
}