; Function Attrs: nounwind uwtable
define i64 @Java_sun_security_pkcs11_wrapper_PKCS11_createNativeKey(ptr noundef %0, ptr noundef %1, i64 noundef %2, ptr noundef %3, i64 noundef %4, ptr noundef %5) local_unnamed_addr #0 {
  %7 = alloca i64, align 8
  %8 = tail call ptr @getFunctionList(ptr noundef %0, ptr noundef %1) #5
  %9 = icmp eq ptr %8, null
  br i1 %9, label %.thread, label %10

10:                                               ; preds = %6
  %11 = load ptr, ptr %0, align 8
  %12 = getelementptr inbounds i8, ptr %11, i64 1472
  %13 = load ptr, ptr %12, align 8
  %14 = tail call ptr %13(ptr noundef nonnull %0, ptr noundef %3, ptr noundef null) #5
  %15 = icmp eq ptr %14, null
  br i1 %15, label %.thread, label %16

16:                                               ; preds = %10
  %.0.copyload24 = load i64, ptr %14, align 1
  %17 = udiv i64 %.0.copyload24, 24
  %18 = getelementptr inbounds i8, ptr %14, i64 8
  %19 = getelementptr inbounds i8, ptr %14, i64 %.0.copyload24
  %20 = getelementptr inbounds i8, ptr %19, i64 8
  %.0.copyload10 = load i64, ptr %20, align 1
  %21 = getelementptr inbounds i8, ptr %14, i64 16
  %22 = getelementptr inbounds i8, ptr %21, i64 %.0.copyload24
  %23 = getelementptr inbounds i8, ptr %22, i64 %.0.copyload10
  %.0.copyload = load i64, ptr %23, align 1
  %.not75 = icmp ult i64 %.0.copyload24, 24
  br i1 %.not75, label %._crit_edge, label %.lr.ph.preheader

.lr.ph.preheader:                                 ; preds = %16
  %24 = getelementptr inbounds i8, ptr %19, i64 16
  br label %.lr.ph

.lr.ph:                                           ; preds = %.lr.ph.preheader, %29
  %.05574 = phi i32 [ %32, %29 ], [ 0, %.lr.ph.preheader ]
  %.05673 = phi ptr [ %30, %29 ], [ %24, %.lr.ph.preheader ]
  %.05772 = phi ptr [ %31, %29 ], [ %18, %.lr.ph.preheader ]
  %25 = getelementptr inbounds i8, ptr %.05772, i64 16
  %26 = load i64, ptr %25, align 8
  %.not64 = icmp eq i64 %26, 0
  br i1 %.not64, label %29, label %27

27:                                               ; preds = %.lr.ph
  %28 = getelementptr inbounds i8, ptr %.05772, i64 8
  store ptr %.05673, ptr %28, align 8
  br label %29

29:                                               ; preds = %27, %.lr.ph
  %30 = getelementptr inbounds i8, ptr %.05673, i64 %26
  %31 = getelementptr inbounds i8, ptr %.05772, i64 24
  %32 = add i32 %.05574, 1
  %33 = zext i32 %32 to i64
  %34 = icmp ugt i64 %17, %33
  br i1 %34, label %.lr.ph, label %._crit_edge, !llvm.loop !9

._crit_edge:                                      ; preds = %29, %16
  %35 = icmp eq i64 %.0.copyload, 0
  br i1 %35, label %36, label %40

36:                                               ; preds = %._crit_edge
  %37 = getelementptr inbounds i8, ptr %8, i64 168
  %38 = load ptr, ptr %37, align 8
  %39 = call i64 %38(i64 noundef %2, ptr noundef nonnull %18, i64 noundef %17, ptr noundef nonnull %7) #5
  br label %46

40:                                               ; preds = %._crit_edge
  %41 = tail call ptr @jMechanismToCKMechanismPtr(ptr noundef nonnull %0, ptr noundef %5) #5
  %42 = getelementptr inbounds i8, ptr %8, i64 496
  %43 = load ptr, ptr %42, align 8
  %44 = getelementptr inbounds i8, ptr %23, i64 8
  %45 = call i64 %43(i64 noundef %2, ptr noundef %41, i64 noundef %4, ptr noundef nonnull %44, i64 noundef %.0.copyload, ptr noundef nonnull %18, i64 noundef %17, ptr noundef nonnull %7) #5
  br label %46

46:                                               ; preds = %36, %40
  %.054 = phi ptr [ null, %36 ], [ %41, %40 ]
  %.0 = phi i64 [ %39, %36 ], [ %45, %40 ]
  %47 = call i64 @ckAssertReturnValueOK(ptr noundef nonnull %0, i64 noundef %.0) #5
  %.not = icmp eq i64 %47, 0
  %48 = load i64, ptr %7, align 8
  %spec.select = select i1 %.not, i64 %48, i64 0
  %49 = load ptr, ptr %0, align 8
  %50 = getelementptr inbounds i8, ptr %49, i64 1536
  %51 = load ptr, ptr %50, align 8
  call void %51(ptr noundef nonnull %0, ptr noundef %3, ptr noundef nonnull %14, i32 noundef 2) #5
  br label %.thread

.thread:                                          ; preds = %10, %6, %46
  %.171 = phi ptr [ %.054, %46 ], [ null, %6 ], [ null, %10 ]
  %.05870 = phi i64 [ %spec.select, %46 ], [ 0, %6 ], [ 0, %10 ]
  call void @freeCKMechanismPtr(ptr noundef %.171) #5
  ret i64 %.05870
}